target datalayout = "e-m:e-p270:32:32-p271:32:32-p272:64:64-i64:64-i128:128-f80:128-n8:16:32:64-S128"
target triple = "x86_64-pc-linux-gnu"

%struct.child_prov_globals = type { ptr, ptr, ptr, ptr, ptr, ptr, ptr, ptr, ptr, ptr, ptr }
%struct.ossl_dispatch_st = type { i32, ptr }

; Function Attrs: inlinehint nounwind uwtable
define internal ptr @OSSL_FUNC_core_get_libctx(ptr noundef %0) #3 {
  %2 = alloca ptr, align 8
  store ptr %0, ptr %2, align 8, !tbaa !15
  %3 = load ptr, ptr %2, align 8, !tbaa !15
  %4 = getelementptr inbounds nuw %struct.ossl_dispatch_st, ptr %3, i32 0, i32 1
  %5 = load ptr, ptr %4, align 8, !tbaa !31
  ret ptr %5
}

; Function Attrs: nounwind uwtable
define internal i32 @ossl_child_provider_init(ptr noundef %0, ptr noundef %1, ptr noundef %2, ptr noundef %3) #0 {
  %5 = alloca i32, align 4
  %6 = alloca ptr, align 8
  %7 = alloca ptr, align 8
  %8 = alloca ptr, align 8
  %9 = alloca ptr, align 8
  %10 = alloca ptr, align 8
  %11 = alloca ptr, align 8
  %12 = alloca ptr, align 8
  %13 = alloca i32, align 4
  store ptr %0, ptr %6, align 8, !tbaa !14
  store ptr %1, ptr %7, align 8, !tbaa !15
  store ptr %2, ptr %8, align 8, !tbaa !38
  store ptr %3, ptr %9, align 8, !tbaa !8
  call void @llvm.lifetime.start.p0(i64 8, ptr %10) #4
  store ptr null, ptr %10, align 8, !tbaa !8
  call void @llvm.lifetime.start.p0(i64 8, ptr %11) #4
  call void @llvm.lifetime.start.p0(i64 8, ptr %12) #4
  br label %14

14:                                               ; preds = %28, %4
  %15 = load ptr, ptr %7, align 8, !tbaa !15
  %16 = getelementptr inbounds nuw %struct.ossl_dispatch_st, ptr %15, i32 0, i32 0
  %17 = load i32, ptr %16, align 8, !tbaa !18
  %18 = icmp ne i32 %17, 0
  br i1 %18, label %19, label %31

19:                                               ; preds = %14
  %20 = load ptr, ptr %7, align 8, !tbaa !15
  %21 = getelementptr inbounds nuw %struct.ossl_dispatch_st, ptr %20, i32 0, i32 0
  %22 = load i32, ptr %21, align 8, !tbaa !18
  switch i32 %22, label %26 [
    i32 4, label %23
  ]

23:                                               ; preds = %19
  %24 = load ptr, ptr %7, align 8, !tbaa !15
  %25 = call ptr @OSSL_FUNC_core_get_libctx(ptr noundef %24)
  store ptr %25, ptr %10, align 8, !tbaa !8
  br label %27

26:                                               ; preds = %19
  br label %27

27:                                               ; preds = %26, %23
  br label %28

28:                                               ; preds = %27
  %29 = load ptr, ptr %7, align 8, !tbaa !15
  %30 = getelementptr inbounds nuw %struct.ossl_dispatch_st, ptr %29, i32 1
  store ptr %30, ptr %7, align 8, !tbaa !15
  br label %14, !llvm.loop !40

31:                                               ; preds = %14
  %32 = load ptr, ptr %10, align 8, !tbaa !8
  %33 = icmp eq ptr %32, null
  br i1 %33, label %34, label %35

34:                                               ; preds = %31
  store i32 0, ptr %5, align 4
  store i32 1, ptr %13, align 4
  br label %61

35:                                               ; preds = %31
  %36 = load ptr, ptr %10, align 8, !tbaa !8
  %37 = load ptr, ptr %6, align 8, !tbaa !14
  %38 = call ptr %36(ptr noundef %37)
  store ptr %38, ptr %11, align 8, !tbaa !3
  %39 = load ptr, ptr %11, align 8, !tbaa !3
  %40 = call ptr @ossl_lib_ctx_get_data(ptr noundef %39, i32 noundef 18)
  store ptr %40, ptr %12, align 8, !tbaa !9
  %41 = load ptr, ptr %12, align 8, !tbaa !9
  %42 = icmp eq ptr %41, null
  br i1 %42, label %43, label %44

43:                                               ; preds = %35
  store i32 0, ptr %5, align 4
  store i32 1, ptr %13, align 4
  br label %61

44:                                               ; preds = %35
  %45 = load ptr, ptr %12, align 8, !tbaa !9
  %46 = getelementptr inbounds nuw %struct.child_prov_globals, ptr %45, i32 0, i32 7
  %47 = load ptr, ptr %46, align 8, !tbaa !25
  %48 = load ptr, ptr %12, align 8, !tbaa !9
  %49 = getelementptr inbounds nuw %struct.child_prov_globals, ptr %48, i32 0, i32 1
  %50 = load ptr, ptr %49, align 8, !tbaa !35
  %51 = call ptr %47(ptr noundef %50)
  %52 = load ptr, ptr %9, align 8, !tbaa !8
  store ptr %51, ptr %52, align 8, !tbaa !8
  %53 = load ptr, ptr %12, align 8, !tbaa !9
  %54 = getelementptr inbounds nuw %struct.child_prov_globals, ptr %53, i32 0, i32 8
  %55 = load ptr, ptr %54, align 8, !tbaa !26
  %56 = load ptr, ptr %12, align 8, !tbaa !9
  %57 = getelementptr inbounds nuw %struct.child_prov_globals, ptr %56, i32 0, i32 1
  %58 = load ptr, ptr %57, align 8, !tbaa !35
  %59 = call ptr %55(ptr noundef %58)
  %60 = load ptr, ptr %8, align 8, !tbaa !38
  store ptr %59, ptr %60, align 8, !tbaa !15
  store i32 1, ptr %5, align 4
  store i32 1, ptr %13, align 4
  br label %61

61:                                               ; preds = %44, %43, %34
  call void @llvm.lifetime.end.p0(i64 8, ptr %12) #4
  call void @llvm.lifetime.end.p0(i64 8, ptr %11) #4
  call void @llvm.lifetime.end.p0(i64 8, ptr %10) #4
  %62 = load i32, ptr %5, align 4
  ret i32 %62
}