; Function Attrs: nounwind uwtable
define internal range(i32 0, 2) i32 @ossl_child_provider_init(ptr noundef %0, ptr noundef readonly captures(none) %1, ptr noundef writeonly captures(none) %2, ptr noundef writeonly captures(none) %3) #0 {
  br label %5

5:                                                ; preds = %9, %4
  %.016 = phi ptr [ null, %4 ], [ %.1, %9 ]
  %.015 = phi ptr [ %1, %4 ], [ %10, %9 ]
  %6 = load i32, ptr %.015, align 8, !tbaa !10
  switch i32 %6, label %9 [
    i32 0, label %11
    i32 4, label %7
  ]

7:                                                ; preds = %5
  %8 = getelementptr i8, ptr %.015, i64 8
  %.015.val = load ptr, ptr %8, align 8, !tbaa !13
  br label %9

9:                                                ; preds = %5, %7
  %.1 = phi ptr [ %.015.val, %7 ], [ %.016, %5 ]
  %10 = getelementptr inbounds nuw i8, ptr %.015, i64 16
  br label %5, !llvm.loop !25

11:                                               ; preds = %5
  %12 = icmp eq ptr %.016, null
  br i1 %12, label %27, label %13

13:                                               ; preds = %11
  %14 = tail call ptr %.016(ptr noundef %0) #2
  %15 = tail call ptr @ossl_lib_ctx_get_data(ptr noundef %14, i32 noundef 18) #2
  %16 = icmp eq ptr %15, null
  br i1 %16, label %27, label %17

17:                                               ; preds = %13
  %18 = getelementptr inbounds nuw i8, ptr %15, i64 56
  %19 = load ptr, ptr %18, align 8, !tbaa !18
  %20 = getelementptr inbounds nuw i8, ptr %15, i64 8
  %21 = load ptr, ptr %20, align 8, !tbaa !24
  %22 = tail call ptr %19(ptr noundef %21) #2
  store ptr %22, ptr %3, align 8, !tbaa !26
  %23 = getelementptr inbounds nuw i8, ptr %15, i64 64
  %24 = load ptr, ptr %23, align 8, !tbaa !19
  %25 = load ptr, ptr %20, align 8, !tbaa !24
  %26 = tail call ptr %24(ptr noundef %25) #2
  store ptr %26, ptr %2, align 8, !tbaa !27
  br label %27

27:                                               ; preds = %13, %11, %17
  %.0 = phi i32 [ 1, %17 ], [ 0, %11 ], [ 0, %13 ]
  ret i32 %.0
}